target datalayout = "e-m:e-p270:32:32-p271:32:32-p272:64:64-i64:64-i128:128-f80:128-n8:16:32:64-S128"
target triple = "x86_64-pc-linux-gnu"

@enterprises_hashtable = internal global ptr null, align 8
@.str.1 = private unnamed_addr constant [10 x i8] c"<Unknown>\00", align 1

; Function Attrs: null_pointer_is_valid sspstrong uwtable
define ptr @try_enterprises_lookup(i32 noundef %0) #3 {
  %2 = alloca ptr, align 8
  %3 = alloca i32, align 4
  %4 = alloca ptr, align 8
  %5 = alloca i32, align 4
  store i32 %0, ptr %3, align 4
  call void @llvm.lifetime.start.p0(i64 8, ptr %4) #16
  %6 = load ptr, ptr @enterprises_hashtable, align 8
  %7 = load i32, ptr %3, align 4
  %8 = zext i32 %7 to i64
  %9 = inttoptr i64 %8 to ptr
  %10 = call ptr @g_hash_table_lookup(ptr noundef %6, ptr noundef %9)
  store ptr %10, ptr %4, align 8
  %11 = load ptr, ptr %4, align 8
  %12 = icmp ne ptr %11, null
  br i1 %12, label %13, label %15

13:                                               ; preds = %1
  %14 = load ptr, ptr %4, align 8
  store ptr %14, ptr %2, align 8
  store i32 1, ptr %5, align 4
  br label %18

15:                                               ; preds = %1
  %16 = load i32, ptr %3, align 4
  %17 = call ptr @global_enterprises_lookup(i32 noundef %16)
  store ptr %17, ptr %2, align 8
  store i32 1, ptr %5, align 4
  br label %18

18:                                               ; preds = %15, %13
  call void @llvm.lifetime.end.p0(i64 8, ptr %4) #16
  %19 = load ptr, ptr %2, align 8
  ret ptr %19
}

; Function Attrs: null_pointer_is_valid sspstrong uwtable
define ptr @enterprises_lookup(i32 noundef %0, ptr noundef %1) #3 {
  %3 = alloca ptr, align 8
  %4 = alloca i32, align 4
  %5 = alloca ptr, align 8
  %6 = alloca ptr, align 8
  %7 = alloca i32, align 4
  store i32 %0, ptr %4, align 4
  store ptr %1, ptr %5, align 8
  call void @llvm.lifetime.start.p0(i64 8, ptr %6) #16
  %8 = load i32, ptr %4, align 4
  %9 = call ptr @try_enterprises_lookup(i32 noundef %8)
  store ptr %9, ptr %6, align 8
  %10 = load ptr, ptr %6, align 8
  %11 = icmp ne ptr %10, null
  br i1 %11, label %12, label %14

12:                                               ; preds = %2
  %13 = load ptr, ptr %6, align 8
  store ptr %13, ptr %3, align 8
  store i32 1, ptr %7, align 4
  br label %20

14:                                               ; preds = %2
  %15 = load ptr, ptr %5, align 8
  %16 = icmp ne ptr %15, null
  br i1 %16, label %17, label %19

17:                                               ; preds = %14
  %18 = load ptr, ptr %5, align 8
  store ptr %18, ptr %3, align 8
  store i32 1, ptr %7, align 4
  br label %20

19:                                               ; preds = %14
  store ptr @.str.1, ptr %3, align 8
  store i32 1, ptr %7, align 4
  br label %20

20:                                               ; preds = %19, %17, %12
  call void @llvm.lifetime.end.p0(i64 8, ptr %6) #16
  %21 = load ptr, ptr %3, align 8
  ret ptr %21
}