; Function Attrs: null_pointer_is_valid sspstrong uwtable
define nonnull ptr @enterprises_lookup(i32 noundef %0, ptr noundef readnone captures(address_is_null, ret: address, provenance) %1) local_unnamed_addr #3 {
  %3 = load ptr, ptr @enterprises_hashtable, align 8
  %4 = zext i32 %0 to i64
  %5 = inttoptr i64 %4 to ptr
  %6 = tail call ptr @g_hash_table_lookup(ptr noundef %3, ptr noundef %5)
  %.not.i = icmp eq ptr %6, null
  br i1 %.not.i, label %7, label %try_enterprises_lookup.exit

7:                                                ; preds = %2
  %8 = tail call ptr @global_enterprises_lookup(i32 noundef %0)
  br label %try_enterprises_lookup.exit

try_enterprises_lookup.exit:                      ; preds = %2, %7
  %.0.i = phi ptr [ %8, %7 ], [ %6, %2 ]
  %.not = icmp eq ptr %.0.i, null
  %.not7 = icmp eq ptr %1, null
  %.str.1. = select i1 %.not7, ptr @.str.1, ptr %1
  %.0 = select i1 %.not, ptr %.str.1., ptr %.0.i
  ret ptr %.0
}